target datalayout = "e-m:e-p270:32:32-p271:32:32-p272:64:64-i64:64-i128:128-f80:128-n8:16:32:64-S128"
target triple = "x86_64-unknown-linux-gnu"

%"class.std::mersenne_twister_engine" = type { [624 x i64], i64 }
%"class.std::normal_distribution" = type <{ %"struct.std::normal_distribution<float>::param_type", float, i8, [3 x i8] }>
%"struct.std::normal_distribution<float>::param_type" = type { float, float }
%struct.random_normal_distribution = type { %"class.std::mersenne_twister_engine", %"class.std::normal_distribution", float, float }

; Function Attrs: mustprogress nounwind uwtable
define noundef float @_Z6fclampfff(float noundef %v, float noundef %min, float noundef %max) #6 {
entry:
  %v.addr = alloca float, align 4
  %min.addr = alloca float, align 4
  %max.addr = alloca float, align 4
  store float %v, ptr %v.addr, align 4
  store float %min, ptr %min.addr, align 4
  store float %max, ptr %max.addr, align 4
  %0 = load float, ptr %v.addr, align 4
  %1 = load float, ptr %min.addr, align 4
  %cmp = fcmp olt float %0, %1
  br i1 %cmp, label %cond.true, label %cond.false

cond.true:                                        ; preds = %entry
  %2 = load float, ptr %min.addr, align 4
  br label %cond.end4

cond.false:                                       ; preds = %entry
  %3 = load float, ptr %v.addr, align 4
  %4 = load float, ptr %max.addr, align 4
  %cmp1 = fcmp ogt float %3, %4
  br i1 %cmp1, label %cond.true2, label %cond.false3

cond.true2:                                       ; preds = %cond.false
  %5 = load float, ptr %max.addr, align 4
  br label %cond.end

cond.false3:                                      ; preds = %cond.false
  %6 = load float, ptr %v.addr, align 4
  br label %cond.end

cond.end:                                         ; preds = %cond.false3, %cond.true2
  %cond = phi float [ %5, %cond.true2 ], [ %6, %cond.false3 ]
  br label %cond.end4

cond.end4:                                        ; preds = %cond.end, %cond.true
  %cond5 = phi float [ %2, %cond.true ], [ %cond, %cond.end ]
  ret float %cond5
}

; Function Attrs: mustprogress uwtable
define linkonce_odr noundef float @_ZNSt19normal_distributionIfEclISt23mersenne_twister_engineImLm32ELm624ELm397ELm31ELm2567483615ELm11ELm4294967295ELm7ELm2636928640ELm15ELm4022730752ELm18ELm1812433253EEEEfRT_(ptr noundef nonnull align 4 dereferenceable(13) %this, ptr noundef nonnull align 8 dereferenceable(5000) %__urng) #4 comdat align 2 {
entry:
  %this.addr = alloca ptr, align 8
  %__urng.addr = alloca ptr, align 8
  store ptr %this, ptr %this.addr, align 8
  store ptr %__urng, ptr %__urng.addr, align 8
  %this1 = load ptr, ptr %this.addr, align 8
  %0 = load ptr, ptr %__urng.addr, align 8
  %_M_param = getelementptr inbounds %"class.std::normal_distribution", ptr %this1, i32 0, i32 0
  %call = call noundef float @_ZNSt19normal_distributionIfEclISt23mersenne_twister_engineImLm32ELm624ELm397ELm31ELm2567483615ELm11ELm4294967295ELm7ELm2636928640ELm15ELm4022730752ELm18ELm1812433253EEEEfRT_RKNS0_10param_typeE(ptr noundef nonnull align 4 dereferenceable(13) %this1, ptr noundef nonnull align 8 dereferenceable(5000) %0, ptr noundef nonnull align 4 dereferenceable(8) %_M_param)
  ret float %call
}

; Function Attrs: mustprogress uwtable
define noundef float @_Z12frand_normalP26random_normal_distribution(ptr noundef %rnd) #4 {
entry:
  %rnd.addr = alloca ptr, align 8
  store ptr %rnd, ptr %rnd.addr, align 8
  %0 = load ptr, ptr %rnd.addr, align 8
  %rd = getelementptr inbounds %struct.random_normal_distribution, ptr %0, i32 0, i32 1
  %1 = load ptr, ptr %rnd.addr, align 8
  %gen = getelementptr inbounds %struct.random_normal_distribution, ptr %1, i32 0, i32 0
  %call = call noundef float @_ZNSt19normal_distributionIfEclISt23mersenne_twister_engineImLm32ELm624ELm397ELm31ELm2567483615ELm11ELm4294967295ELm7ELm2636928640ELm15ELm4022730752ELm18ELm1812433253EEEEfRT_(ptr noundef nonnull align 4 dereferenceable(13) %rd, ptr noundef nonnull align 8 dereferenceable(5000) %gen)
  %2 = load ptr, ptr %rnd.addr, align 8
  %min = getelementptr inbounds %struct.random_normal_distribution, ptr %2, i32 0, i32 2
  %3 = load float, ptr %min, align 8
  %4 = load ptr, ptr %rnd.addr, align 8
  %max = getelementptr inbounds %struct.random_normal_distribution, ptr %4, i32 0, i32 3
  %5 = load float, ptr %max, align 4
  %call1 = call noundef float @_Z6fclampfff(float noundef %call, float noundef %3, float noundef %5)
  ret float %call1
}