; Function Attrs: mustprogress uwtable
define noundef float @_Z12frand_normalP26random_normal_distribution(ptr noundef nonnull %rnd) local_unnamed_addr #3 {
entry:
  %rd = getelementptr inbounds nuw i8, ptr %rnd, i64 5000
  %call.i = tail call noundef float @_ZNSt19normal_distributionIfEclISt23mersenne_twister_engineImLm32ELm624ELm397ELm31ELm2567483615ELm11ELm4294967295ELm7ELm2636928640ELm15ELm4022730752ELm18ELm1812433253EEEEfRT_RKNS0_10param_typeE(ptr noundef nonnull align 4 dereferenceable(13) %rd, ptr noundef nonnull align 8 dereferenceable(5000) %rnd, ptr noundef nonnull align 4 dereferenceable(13) %rd)
  %min = getelementptr inbounds nuw i8, ptr %rnd, i64 5016
  %0 = load float, ptr %min, align 8
  %max = getelementptr inbounds nuw i8, ptr %rnd, i64 5020
  %1 = load float, ptr %max, align 4
  %cmp.i = fcmp olt float %call.i, %0
  %cmp1.i = fcmp ogt float %call.i, %1
  %cond.i = select i1 %cmp1.i, float %1, float %call.i
  %cond5.i = select i1 %cmp.i, float %0, float %cond.i
  ret float %cond5.i
}